target datalayout = "e-m:e-p270:32:32-p271:32:32-p272:64:64-i64:64-i128:128-f80:128-n8:16:32:64-S128"
target triple = "x86_64-pc-linux-gnu"

%"class.grpc_core::channelz::BaseNode" = type { %"class.grpc_core::RefCounted", i32, i64, %"class.std::__cxx11::basic_string" }
%"class.grpc_core::RefCounted" = type { %"class.grpc_core::PolymorphicRefCount", %"class.grpc_core::RefCount" }
%"class.grpc_core::PolymorphicRefCount" = type { ptr }
%"class.grpc_core::RefCount" = type { %"struct.std::atomic" }
%"struct.std::atomic" = type { %"struct.std::__atomic_base" }
%"struct.std::__atomic_base" = type { i64 }
%"class.std::__cxx11::basic_string" = type { %"struct.std::__cxx11::basic_string<char>::_Alloc_hider", i64, %union.anon }
%"struct.std::__cxx11::basic_string<char>::_Alloc_hider" = type { ptr }
%union.anon = type { i64, [8 x i8] }
%"struct.std::atomic.14" = type { double }
%"class.grpc_core::RefCountedPtr.36" = type { ptr }
%"class.grpc_core::channelz::SocketNode" = type { %"class.grpc_core::channelz::BaseNode", %"struct.std::atomic", %"struct.std::atomic", %"struct.std::atomic", %"struct.std::atomic", %"struct.std::atomic", %"struct.std::atomic", %"struct.std::atomic.14", %"struct.std::atomic.14", %"struct.std::atomic.14", %"struct.std::atomic.14", %"class.std::__cxx11::basic_string", %"class.std::__cxx11::basic_string", %"class.grpc_core::RefCountedPtr.36" }

; Function Attrs: mustprogress nounwind uwtable
define linkonce_odr void @_ZNSt6atomicIdE5storeEdSt12memory_order(ptr noundef nonnull align 8 dereferenceable(8) %0, double noundef %1, i32 noundef %2) #5 comdat align 2 {
  %4 = alloca ptr, align 8
  %5 = alloca double, align 8
  %6 = alloca i32, align 4
  store ptr %0, ptr %4, align 8, !tbaa !39
  store double %1, ptr %5, align 8, !tbaa !41
  store i32 %2, ptr %6, align 4, !tbaa !37
  %7 = load ptr, ptr %4, align 8
  %8 = getelementptr inbounds nuw %"struct.std::atomic.14", ptr %7, i32 0, i32 0
  %9 = load i32, ptr %6, align 4, !tbaa !37
  switch i32 %9, label %10 [
    i32 3, label %12
    i32 5, label %14
  ]

10:                                               ; preds = %3
  %11 = load i64, ptr %5, align 8
  store atomic i64 %11, ptr %8 monotonic, align 8
  br label %16

12:                                               ; preds = %3
  %13 = load i64, ptr %5, align 8
  store atomic i64 %13, ptr %8 release, align 8
  br label %16

14:                                               ; preds = %3
  %15 = load i64, ptr %5, align 8
  store atomic i64 %15, ptr %8 seq_cst, align 8
  br label %16

16:                                               ; preds = %14, %12, %10
  ret void
}

; Function Attrs: alwaysinline mustprogress nounwind uwtable
define linkonce_odr noundef i64 @_ZNSt13__atomic_baseIlE9fetch_addElSt12memory_order(ptr noundef nonnull align 8 dereferenceable(8) %0, i64 noundef %1, i32 noundef %2) #10 comdat align 2 {
  %4 = alloca ptr, align 8
  %5 = alloca i64, align 8
  %6 = alloca i32, align 4
  %7 = alloca i64, align 8
  %8 = alloca i64, align 8
  store ptr %0, ptr %4, align 8, !tbaa !35
  store i64 %1, ptr %5, align 8, !tbaa !29
  store i32 %2, ptr %6, align 4, !tbaa !37
  %9 = load ptr, ptr %4, align 8
  %10 = getelementptr inbounds nuw %"struct.std::__atomic_base", ptr %9, i32 0, i32 0
  %11 = load i32, ptr %6, align 4, !tbaa !37
  %12 = load i64, ptr %5, align 8, !tbaa !29
  store i64 %12, ptr %7, align 8, !tbaa !29
  switch i32 %11, label %13 [
    i32 1, label %16
    i32 2, label %16
    i32 3, label %19
    i32 4, label %22
    i32 5, label %25
  ]

13:                                               ; preds = %3
  %14 = load i64, ptr %7, align 8
  %15 = atomicrmw add ptr %10, i64 %14 monotonic, align 8
  store i64 %15, ptr %8, align 8
  br label %28

16:                                               ; preds = %3, %3
  %17 = load i64, ptr %7, align 8
  %18 = atomicrmw add ptr %10, i64 %17 acquire, align 8
  store i64 %18, ptr %8, align 8
  br label %28

19:                                               ; preds = %3
  %20 = load i64, ptr %7, align 8
  %21 = atomicrmw add ptr %10, i64 %20 release, align 8
  store i64 %21, ptr %8, align 8
  br label %28

22:                                               ; preds = %3
  %23 = load i64, ptr %7, align 8
  %24 = atomicrmw add ptr %10, i64 %23 acq_rel, align 8
  store i64 %24, ptr %8, align 8
  br label %28

25:                                               ; preds = %3
  %26 = load i64, ptr %7, align 8
  %27 = atomicrmw add ptr %10, i64 %26 seq_cst, align 8
  store i64 %27, ptr %8, align 8
  br label %28

28:                                               ; preds = %25, %22, %19, %16, %13
  %29 = load i64, ptr %8, align 8, !tbaa !29
  ret i64 %29
}

; Function Attrs: mustprogress uwtable
define void @_ZN9grpc_core8channelz10SocketNode18RecordMessagesSentEj(ptr noundef nonnull align 8 dereferenceable(216) %0, i32 noundef %1) #4 align 2 {
  %3 = alloca ptr, align 8
  %4 = alloca i32, align 4
  store ptr %0, ptr %3, align 8, !tbaa !215
  store i32 %1, ptr %4, align 4, !tbaa !46
  %5 = load ptr, ptr %3, align 8
  %6 = getelementptr inbounds nuw %"class.grpc_core::channelz::SocketNode", ptr %5, i32 0, i32 4
  %7 = load i32, ptr %4, align 4, !tbaa !46
  %8 = zext i32 %7 to i64
  %9 = call noundef i64 @_ZNSt13__atomic_baseIlE9fetch_addElSt12memory_order(ptr noundef nonnull align 8 dereferenceable(8) %6, i64 noundef %8, i32 noundef 0) #3
  %10 = getelementptr inbounds nuw %"class.grpc_core::channelz::SocketNode", ptr %5, i32 0, i32 9
  %11 = call noundef double @_Z21gpr_get_cycle_counterv()
  call void @_ZNSt6atomicIdE5storeEdSt12memory_order(ptr noundef nonnull align 8 dereferenceable(8) %10, double noundef %11, i32 noundef 0) #3
  ret void
}