; Function Attrs: mustprogress uwtable
define void @_ZN9grpc_core8channelz10SocketNode18RecordMessagesSentEj(ptr noundef nonnull align 8 captures(none) dereferenceable(216) %0, i32 noundef %1) local_unnamed_addr #3 align 2 {
  %3 = getelementptr inbounds nuw i8, ptr %0, i64 88
  %4 = zext i32 %1 to i64
  %5 = atomicrmw add ptr %3, i64 %4 monotonic, align 8
  %6 = getelementptr inbounds nuw i8, ptr %0, i64 128
  %7 = tail call noundef double @_Z21gpr_get_cycle_counterv()
  %8 = bitcast double %7 to i64
  store atomic i64 %8, ptr %6 monotonic, align 8
  ret void
}